target datalayout = "e-m:e-p270:32:32-p271:32:32-p272:64:64-i64:64-i128:128-f80:128-n8:16:32:64-S128"
target triple = "x86_64-pc-linux-gnu"

%struct.Sbd_Par_t_ = type { i32, i32, i32, i32, i32, i32, i32, i32, i32, i32, i32, i32, i32, i32, i32, i32, i32 }

; Function Attrs: nounwind uwtable
define void @Sbd_ParSetDefault(ptr noundef %0) #0 {
  %2 = alloca ptr, align 8
  store ptr %0, ptr %2, align 8, !tbaa !3
  %3 = load ptr, ptr %2, align 8, !tbaa !3
  call void @llvm.memset.p0.i64(ptr align 4 %3, i8 0, i64 68, i1 false)
  %4 = load ptr, ptr %2, align 8, !tbaa !3
  %5 = getelementptr inbounds nuw %struct.Sbd_Par_t_, ptr %4, i32 0, i32 0
  store i32 4, ptr %5, align 4, !tbaa !8
  %6 = load ptr, ptr %2, align 8, !tbaa !3
  %7 = getelementptr inbounds nuw %struct.Sbd_Par_t_, ptr %6, i32 0, i32 1
  store i32 3, ptr %7, align 4, !tbaa !11
  %8 = load ptr, ptr %2, align 8, !tbaa !3
  %9 = getelementptr inbounds nuw %struct.Sbd_Par_t_, ptr %8, i32 0, i32 0
  %10 = load i32, ptr %9, align 4, !tbaa !8
  %11 = sub nsw i32 %10, 1
  %12 = load ptr, ptr %2, align 8, !tbaa !3
  %13 = getelementptr inbounds nuw %struct.Sbd_Par_t_, ptr %12, i32 0, i32 1
  %14 = load i32, ptr %13, align 4, !tbaa !11
  %15 = mul nsw i32 %11, %14
  %16 = add nsw i32 %15, 1
  %17 = load ptr, ptr %2, align 8, !tbaa !3
  %18 = getelementptr inbounds nuw %struct.Sbd_Par_t_, ptr %17, i32 0, i32 2
  store i32 %16, ptr %18, align 4, !tbaa !12
  %19 = load ptr, ptr %2, align 8, !tbaa !3
  %20 = getelementptr inbounds nuw %struct.Sbd_Par_t_, ptr %19, i32 0, i32 3
  store i32 128, ptr %20, align 4, !tbaa !13
  %21 = load ptr, ptr %2, align 8, !tbaa !3
  %22 = getelementptr inbounds nuw %struct.Sbd_Par_t_, ptr %21, i32 0, i32 4
  store i32 5, ptr %22, align 4, !tbaa !14
  %23 = load ptr, ptr %2, align 8, !tbaa !3
  %24 = getelementptr inbounds nuw %struct.Sbd_Par_t_, ptr %23, i32 0, i32 5
  store i32 4, ptr %24, align 4, !tbaa !15
  %25 = load ptr, ptr %2, align 8, !tbaa !3
  %26 = getelementptr inbounds nuw %struct.Sbd_Par_t_, ptr %25, i32 0, i32 6
  store i32 2000, ptr %26, align 4, !tbaa !16
  %27 = load ptr, ptr %2, align 8, !tbaa !3
  %28 = getelementptr inbounds nuw %struct.Sbd_Par_t_, ptr %27, i32 0, i32 7
  store i32 0, ptr %28, align 4, !tbaa !17
  %29 = load ptr, ptr %2, align 8, !tbaa !3
  %30 = getelementptr inbounds nuw %struct.Sbd_Par_t_, ptr %29, i32 0, i32 8
  store i32 1, ptr %30, align 4, !tbaa !18
  %31 = load ptr, ptr %2, align 8, !tbaa !3
  %32 = getelementptr inbounds nuw %struct.Sbd_Par_t_, ptr %31, i32 0, i32 9
  store i32 1, ptr %32, align 4, !tbaa !19
  %33 = load ptr, ptr %2, align 8, !tbaa !3
  %34 = getelementptr inbounds nuw %struct.Sbd_Par_t_, ptr %33, i32 0, i32 10
  store i32 0, ptr %34, align 4, !tbaa !20
  %35 = load ptr, ptr %2, align 8, !tbaa !3
  %36 = getelementptr inbounds nuw %struct.Sbd_Par_t_, ptr %35, i32 0, i32 11
  store i32 0, ptr %36, align 4, !tbaa !21
  %37 = load ptr, ptr %2, align 8, !tbaa !3
  %38 = getelementptr inbounds nuw %struct.Sbd_Par_t_, ptr %37, i32 0, i32 12
  store i32 0, ptr %38, align 4, !tbaa !22
  %39 = load ptr, ptr %2, align 8, !tbaa !3
  %40 = getelementptr inbounds nuw %struct.Sbd_Par_t_, ptr %39, i32 0, i32 13
  store i32 0, ptr %40, align 4, !tbaa !23
  %41 = load ptr, ptr %2, align 8, !tbaa !3
  %42 = getelementptr inbounds nuw %struct.Sbd_Par_t_, ptr %41, i32 0, i32 14
  store i32 0, ptr %42, align 4, !tbaa !24
  %43 = load ptr, ptr %2, align 8, !tbaa !3
  %44 = getelementptr inbounds nuw %struct.Sbd_Par_t_, ptr %43, i32 0, i32 15
  store i32 0, ptr %44, align 4, !tbaa !25
  %45 = load ptr, ptr %2, align 8, !tbaa !3
  %46 = getelementptr inbounds nuw %struct.Sbd_Par_t_, ptr %45, i32 0, i32 16
  store i32 0, ptr %46, align 4, !tbaa !26
  ret void
}